target datalayout = "e-m:e-p270:32:32-p271:32:32-p272:64:64-i64:64-i128:128-f80:128-n8:16:32:64-S128"
target triple = "x86_64-unknown-linux-gnu"

%"class.boost::detail::shared_count" = type { ptr }
%"class.boost::shared_ptr.21" = type { ptr, %"class.boost::detail::shared_count" }
%"class.boost::shared_ptr.20" = type { ptr, %"class.boost::detail::shared_count" }
%"class.QuantLib::AbcdCalibration" = type { i8, i8, i8, i8, double, double, double, double, %"class.boost::shared_ptr.22", i32, %"class.boost::shared_ptr.20", %"class.boost::shared_ptr.21", %"class.std::vector", i8, %"class.std::vector", %"class.std::vector" }
%"class.boost::shared_ptr.22" = type { ptr, %"class.boost::detail::shared_count" }
%"class.std::vector" = type { %"struct.std::_Vector_base" }
%"struct.std::_Vector_base" = type { %"struct.std::_Vector_base<double, std::allocator<double>>::_Vector_impl" }
%"struct.std::_Vector_base<double, std::allocator<double>>::_Vector_impl" = type { %"struct.std::_Vector_base<double, std::allocator<double>>::_Vector_impl_data" }
%"struct.std::_Vector_base<double, std::allocator<double>>::_Vector_impl_data" = type { ptr, ptr, ptr }

; Function Attrs: mustprogress nounwind uwtable
define linkonce_odr noundef nonnull align 8 dereferenceable(8) ptr @_ZNSt6vectorIdSaIdEEixEm(ptr noundef nonnull align 8 dereferenceable(24) %this, i64 noundef %__n) #5 comdat align 2 {
entry:
  %this.addr = alloca ptr, align 8
  %__n.addr = alloca i64, align 8
  store ptr %this, ptr %this.addr, align 8, !tbaa !3
  store i64 %__n, ptr %__n.addr, align 8, !tbaa !13
  %this1 = load ptr, ptr %this.addr, align 8
  %_M_impl = getelementptr inbounds nuw %"struct.std::_Vector_base", ptr %this1, i32 0, i32 0
  %_M_start = getelementptr inbounds nuw %"struct.std::_Vector_base<double, std::allocator<double>>::_Vector_impl_data", ptr %_M_impl, i32 0, i32 0
  %0 = load ptr, ptr %_M_start, align 8, !tbaa !51
  %1 = load i64, ptr %__n.addr, align 8, !tbaa !13
  %add.ptr = getelementptr inbounds nuw double, ptr %0, i64 %1
  ret ptr %add.ptr
}

; Function Attrs: mustprogress nounwind uwtable
define linkonce_odr noundef nonnull align 8 dereferenceable(8) ptr @_ZNKSt6vectorIdSaIdEEixEm(ptr noundef nonnull align 8 dereferenceable(24) %this, i64 noundef %__n) #5 comdat align 2 {
entry:
  %this.addr = alloca ptr, align 8
  %__n.addr = alloca i64, align 8
  store ptr %this, ptr %this.addr, align 8, !tbaa !3
  store i64 %__n, ptr %__n.addr, align 8, !tbaa !13
  %this1 = load ptr, ptr %this.addr, align 8
  %_M_impl = getelementptr inbounds nuw %"struct.std::_Vector_base", ptr %this1, i32 0, i32 0
  %_M_start = getelementptr inbounds nuw %"struct.std::_Vector_base<double, std::allocator<double>>::_Vector_impl_data", ptr %_M_impl, i32 0, i32 0
  %0 = load ptr, ptr %_M_start, align 8, !tbaa !51
  %1 = load i64, ptr %__n.addr, align 8, !tbaa !13
  %add.ptr = getelementptr inbounds nuw double, ptr %0, i64 %1
  ret ptr %add.ptr
}

; Function Attrs: mustprogress nounwind uwtable
define linkonce_odr noundef i64 @_ZNKSt6vectorIdSaIdEE4sizeEv(ptr noundef nonnull align 8 dereferenceable(24) %this) #5 comdat align 2 {
entry:
  %this.addr = alloca ptr, align 8
  store ptr %this, ptr %this.addr, align 8, !tbaa !3
  %this1 = load ptr, ptr %this.addr, align 8
  %_M_impl = getelementptr inbounds nuw %"struct.std::_Vector_base", ptr %this1, i32 0, i32 0
  %_M_finish = getelementptr inbounds nuw %"struct.std::_Vector_base<double, std::allocator<double>>::_Vector_impl_data", ptr %_M_impl, i32 0, i32 1
  %0 = load ptr, ptr %_M_finish, align 8, !tbaa !50
  %_M_impl2 = getelementptr inbounds nuw %"struct.std::_Vector_base", ptr %this1, i32 0, i32 0
  %_M_start = getelementptr inbounds nuw %"struct.std::_Vector_base<double, std::allocator<double>>::_Vector_impl_data", ptr %_M_impl2, i32 0, i32 0
  %1 = load ptr, ptr %_M_start, align 8, !tbaa !51
  %sub.ptr.lhs.cast = ptrtoint ptr %0 to i64
  %sub.ptr.rhs.cast = ptrtoint ptr %1 to i64
  %sub.ptr.sub = sub i64 %sub.ptr.lhs.cast, %sub.ptr.rhs.cast
  %sub.ptr.div = sdiv exact i64 %sub.ptr.sub, 8
  ret i64 %sub.ptr.div
}

; Function Attrs: mustprogress uwtable
define noundef double @_ZNK8QuantLib15AbcdCalibration5errorEv(ptr noundef nonnull align 8 dereferenceable(176) %this) #3 align 2 {
entry:
  %this.addr = alloca ptr, align 8
  %n = alloca i64, align 8
  %error = alloca double, align 8
  %squaredError = alloca double, align 8
  %i = alloca i64, align 8
  store ptr %this, ptr %this.addr, align 8, !tbaa !3
  %this1 = load ptr, ptr %this.addr, align 8
  call void @llvm.lifetime.start.p0(i64 8, ptr %n) #17
  %times_ = getelementptr inbounds nuw %"class.QuantLib::AbcdCalibration", ptr %this1, i32 0, i32 14
  %call = call noundef i64 @_ZNKSt6vectorIdSaIdEE4sizeEv(ptr noundef nonnull align 8 dereferenceable(24) %times_) #17
  store i64 %call, ptr %n, align 8, !tbaa !13
  call void @llvm.lifetime.start.p0(i64 8, ptr %error) #17
  call void @llvm.lifetime.start.p0(i64 8, ptr %squaredError) #17
  store double 0.000000e+00, ptr %squaredError, align 8, !tbaa !9
  call void @llvm.lifetime.start.p0(i64 8, ptr %i) #17
  store i64 0, ptr %i, align 8, !tbaa !13
  br label %for.cond

for.cond:                                         ; preds = %for.inc, %entry
  %0 = load i64, ptr %i, align 8, !tbaa !13
  %times_2 = getelementptr inbounds nuw %"class.QuantLib::AbcdCalibration", ptr %this1, i32 0, i32 14
  %call3 = call noundef i64 @_ZNKSt6vectorIdSaIdEE4sizeEv(ptr noundef nonnull align 8 dereferenceable(24) %times_2) #17
  %cmp = icmp ult i64 %0, %call3
  br i1 %cmp, label %for.body, label %for.cond.cleanup

for.cond.cleanup:                                 ; preds = %for.cond
  call void @llvm.lifetime.end.p0(i64 8, ptr %i) #17
  br label %for.end

for.body:                                         ; preds = %for.cond
  %times_4 = getelementptr inbounds nuw %"class.QuantLib::AbcdCalibration", ptr %this1, i32 0, i32 14
  %1 = load i64, ptr %i, align 8, !tbaa !13
  %call5 = call noundef nonnull align 8 dereferenceable(8) ptr @_ZNKSt6vectorIdSaIdEEixEm(ptr noundef nonnull align 8 dereferenceable(24) %times_4, i64 noundef %1) #17
  %2 = load double, ptr %call5, align 8, !tbaa !9
  %call6 = call noundef double @_ZNK8QuantLib15AbcdCalibration5valueEd(ptr noundef nonnull align 8 dereferenceable(176) %this1, double noundef %2)
  %blackVols_ = getelementptr inbounds nuw %"class.QuantLib::AbcdCalibration", ptr %this1, i32 0, i32 15
  %3 = load i64, ptr %i, align 8, !tbaa !13
  %call7 = call noundef nonnull align 8 dereferenceable(8) ptr @_ZNKSt6vectorIdSaIdEEixEm(ptr noundef nonnull align 8 dereferenceable(24) %blackVols_, i64 noundef %3) #17
  %4 = load double, ptr %call7, align 8, !tbaa !9
  %sub = fsub double %call6, %4
  store double %sub, ptr %error, align 8, !tbaa !9
  %5 = load double, ptr %error, align 8, !tbaa !9
  %6 = load double, ptr %error, align 8, !tbaa !9
  %mul = fmul double %5, %6
  %weights_ = getelementptr inbounds nuw %"class.QuantLib::AbcdCalibration", ptr %this1, i32 0, i32 12
  %7 = load i64, ptr %i, align 8, !tbaa !13
  %call8 = call noundef nonnull align 8 dereferenceable(8) ptr @_ZNSt6vectorIdSaIdEEixEm(ptr noundef nonnull align 8 dereferenceable(24) %weights_, i64 noundef %7) #17
  %8 = load double, ptr %call8, align 8, !tbaa !9
  %9 = load double, ptr %squaredError, align 8, !tbaa !9
  %10 = call double @llvm.fmuladd.f64(double %mul, double %8, double %9)
  store double %10, ptr %squaredError, align 8, !tbaa !9
  br label %for.inc

for.inc:                                          ; preds = %for.body
  %11 = load i64, ptr %i, align 8, !tbaa !13
  %inc = add i64 %11, 1
  store i64 %inc, ptr %i, align 8, !tbaa !13
  br label %for.cond, !llvm.loop !67

for.end:                                          ; preds = %for.cond.cleanup
  %12 = load i64, ptr %n, align 8, !tbaa !13
  %conv = uitofp i64 %12 to double
  %13 = load double, ptr %squaredError, align 8, !tbaa !9
  %mul10 = fmul double %conv, %13
  %14 = load i64, ptr %n, align 8, !tbaa !13
  %sub11 = sub i64 %14, 1
  %conv12 = uitofp i64 %sub11 to double
  %div = fdiv double %mul10, %conv12
  %call13 = call double @sqrt(double noundef %div) #17, !tbaa !11
  call void @llvm.lifetime.end.p0(i64 8, ptr %squaredError) #17
  call void @llvm.lifetime.end.p0(i64 8, ptr %error) #17
  call void @llvm.lifetime.end.p0(i64 8, ptr %n) #17
  ret double %call13
}