; Function Attrs: mustprogress uwtable
define noundef double @_ZNK8QuantLib15AbcdCalibration5errorEv(ptr nocapture noundef nonnull readonly align 8 dereferenceable(176) %this) local_unnamed_addr #3 align 2 {
entry:
  %times_ = getelementptr inbounds nuw i8, ptr %this, i64 128
  %_M_finish.i = getelementptr inbounds nuw i8, ptr %this, i64 136
  %0 = load ptr, ptr %_M_finish.i, align 8, !tbaa !51
  %1 = load ptr, ptr %times_, align 8, !tbaa !52
  %cmp19.not = icmp eq ptr %0, %1
  br i1 %cmp19.not, label %for.cond.cleanup, label %for.body.lr.ph

for.body.lr.ph:                                   ; preds = %entry
  %blackVols_ = getelementptr inbounds nuw i8, ptr %this, i64 152
  %weights_ = getelementptr inbounds nuw i8, ptr %this, i64 96
  br label %for.body

for.cond.cleanup:                                 ; preds = %for.body, %entry
  %squaredError.0.lcssa = phi double [ 0.000000e+00, %entry ], [ %8, %for.body ]
  %sub.ptr.lhs.cast.i = ptrtoint ptr %0 to i64
  %sub.ptr.rhs.cast.i = ptrtoint ptr %1 to i64
  %sub.ptr.sub.i = sub i64 %sub.ptr.lhs.cast.i, %sub.ptr.rhs.cast.i
  %sub.ptr.div.i = ashr exact i64 %sub.ptr.sub.i, 3
  %conv = uitofp i64 %sub.ptr.div.i to double
  %mul10 = fmul double %squaredError.0.lcssa, %conv
  %sub11 = add nsw i64 %sub.ptr.div.i, -1
  %conv12 = uitofp i64 %sub11 to double
  %div = fdiv double %mul10, %conv12
  %call13 = tail call double @sqrt(double noundef %div) #22, !tbaa !21
  ret double %call13

for.body:                                         ; preds = %for.body.lr.ph, %for.body
  %2 = phi ptr [ %1, %for.body.lr.ph ], [ %10, %for.body ]
  %i.021 = phi i64 [ 0, %for.body.lr.ph ], [ %inc, %for.body ]
  %squaredError.020 = phi double [ 0.000000e+00, %for.body.lr.ph ], [ %8, %for.body ]
  %add.ptr.i = getelementptr inbounds nuw double, ptr %2, i64 %i.021
  %3 = load double, ptr %add.ptr.i, align 8, !tbaa !19
  %call6 = tail call noundef double @_ZNK8QuantLib15AbcdCalibration5valueEd(ptr noundef nonnull align 8 dereferenceable(176) %this, double noundef %3)
  %4 = load ptr, ptr %blackVols_, align 8, !tbaa !52
  %add.ptr.i13 = getelementptr inbounds nuw double, ptr %4, i64 %i.021
  %5 = load double, ptr %add.ptr.i13, align 8, !tbaa !19
  %sub = fsub double %call6, %5
  %mul = fmul double %sub, %sub
  %6 = load ptr, ptr %weights_, align 8, !tbaa !52
  %add.ptr.i14 = getelementptr inbounds nuw double, ptr %6, i64 %i.021
  %7 = load double, ptr %add.ptr.i14, align 8, !tbaa !19
  %8 = tail call double @llvm.fmuladd.f64(double %mul, double %7, double %squaredError.020)
  %inc = add nuw i64 %i.021, 1
  %9 = load ptr, ptr %_M_finish.i, align 8, !tbaa !51
  %10 = load ptr, ptr %times_, align 8, !tbaa !52
  %sub.ptr.lhs.cast.i9 = ptrtoint ptr %9 to i64
  %sub.ptr.rhs.cast.i10 = ptrtoint ptr %10 to i64
  %sub.ptr.sub.i11 = sub i64 %sub.ptr.lhs.cast.i9, %sub.ptr.rhs.cast.i10
  %sub.ptr.div.i12 = ashr exact i64 %sub.ptr.sub.i11, 3
  %cmp = icmp ult i64 %inc, %sub.ptr.div.i12
  br i1 %cmp, label %for.body, label %for.cond.cleanup, !llvm.loop !86
}